target datalayout = "e-m:e-p270:32:32-p271:32:32-p272:64:64-i64:64-i128:128-f80:128-n8:16:32:64-S128"
target triple = "x86_64-pc-linux-gnu"

%struct.expert_field = type { i32, i32 }
%struct._value_string = type { i32, ptr }
%struct._StringInfo = type { ptr, i32 }
%struct._packet_info = type { ptr, ptr, i32, i32, %struct.nstime_t, %struct.nstime_t, %struct.nstime_t, i8, ptr, ptr, ptr, ptr, %struct._address, %struct._address, %struct._address, %struct._address, %struct._address, %struct._address, i32, ptr, i8, [3 x i8], %struct.anon, i32, i32, i32, i32, ptr, i8, ptr, ptr, i16, i16, i32, i32, i16, i32, i32, ptr, ptr, ptr, i8, i8, i16, i16, i16, i32, i16, i16, ptr, ptr, ptr, ptr, ptr, i32, i32 }
%struct.nstime_t = type { i64, i32 }
%struct._address = type { i32, i32, ptr, ptr }
%struct.anon = type { i8, [3 x i8] }
%struct._SslSession = type { i32, i32, i16, i8, [32 x i8], i8, i8, i32, i32, i32, %struct._StringInfo, i8, i8, [8 x i8], [8 x i8], [16 x i8], %struct._address, i32, i32, ptr, ptr, ptr, i32, i8, i32, i32, ptr, ptr, i8, i8, i8, i8, i8, [2 x i64], [2 x i64] }

@hf_dtls_heartbeat_message = internal global i32 0, align 4
@hf_dtls_heartbeat_message_type = internal global i32 0, align 4
@tls_heartbeat_type = external constant [0 x %struct._value_string], align 8
@hf_dtls_heartbeat_message_payload_length = internal global i32 0, align 4
@hf_dtls_heartbeat_message_payload = internal global i32 0, align 4
@hf_dtls_heartbeat_message_padding = internal global i32 0, align 4
@ett_dtls_heartbeat = internal global i32 0, align 4
@ei_dtls_heartbeat_payload_length = internal global %struct.expert_field zeroinitializer, align 4
@.str.858 = private unnamed_addr constant [5 x i8] c"DTLS\00", align 1
@.str.922 = private unnamed_addr constant [1 x i8] zeroinitializer, align 1
@ssl_version_short_names = external constant [0 x %struct._value_string], align 8
@.str.992 = private unnamed_addr constant [13 x i8] c"Heartbeat %s\00", align 1
@.str.993 = private unnamed_addr constant [20 x i8] c"Encrypted Heartbeat\00", align 1
@.str.994 = private unnamed_addr constant [30 x i8] c"%s Record Layer: Heartbeat %s\00", align 1
@.str.995 = private unnamed_addr constant [38 x i8] c"Invalid heartbeat payload length (%d)\00", align 1
@.str.996 = private unnamed_addr constant [39 x i8] c" (invalid, using %u to decode payload)\00", align 1
@.str.997 = private unnamed_addr constant [20 x i8] c"Payload (%u byte%s)\00", align 1
@.str.998 = private unnamed_addr constant [2 x i8] c"s\00", align 1
@.str.999 = private unnamed_addr constant [29 x i8] c"Padding and HMAC (%u byte%s)\00", align 1
@.str.1000 = private unnamed_addr constant [37 x i8] c"%s Record Layer: Encrypted Heartbeat\00", align 1
@.str.1001 = private unnamed_addr constant [28 x i8] c"Encrypted Heartbeat Message\00", align 1

; Function Attrs: null_pointer_is_valid sspstrong uwtable
define internal void @dissect_dtls_heartbeat(ptr noundef %0, ptr noundef %1, ptr noundef %2, i32 noundef %3, ptr noundef %4, i32 noundef %5, i1 noundef zeroext %6) #0 {
  %8 = alloca ptr, align 8
  %9 = alloca ptr, align 8
  %10 = alloca ptr, align 8
  %11 = alloca i32, align 4
  %12 = alloca ptr, align 8
  %13 = alloca i32, align 4
  %14 = alloca i8, align 1
  %15 = alloca ptr, align 8
  %16 = alloca ptr, align 8
  %17 = alloca ptr, align 8
  %18 = alloca i8, align 1
  %19 = alloca i16, align 2
  %20 = alloca i16, align 2
  store ptr %0, ptr %8, align 8
  store ptr %1, ptr %9, align 8
  store ptr %2, ptr %10, align 8
  store i32 %3, ptr %11, align 4
  store ptr %4, ptr %12, align 8
  store i32 %5, ptr %13, align 4
  %21 = zext i1 %6 to i8
  store i8 %21, ptr %14, align 1
  call void @llvm.lifetime.start.p0(i64 8, ptr %15) #12
  call void @llvm.lifetime.start.p0(i64 8, ptr %16) #12
  call void @llvm.lifetime.start.p0(i64 8, ptr %17) #12
  call void @llvm.lifetime.start.p0(i64 1, ptr %18) #12
  call void @llvm.lifetime.start.p0(i64 2, ptr %19) #12
  call void @llvm.lifetime.start.p0(i64 2, ptr %20) #12
  %22 = load ptr, ptr %10, align 8
  %23 = load i32, ptr @hf_dtls_heartbeat_message, align 4
  %24 = load ptr, ptr %8, align 8
  %25 = load i32, ptr %11, align 4
  %26 = load i32, ptr %13, align 4
  %27 = sub i32 %26, 32
  %28 = call ptr @proto_tree_add_item(ptr noundef %22, i32 noundef %23, ptr noundef %24, i32 noundef %25, i32 noundef %27, i32 noundef 0)
  store ptr %28, ptr %15, align 8
  %29 = load ptr, ptr %15, align 8
  %30 = load i32, ptr @ett_dtls_heartbeat, align 4
  %31 = call ptr @proto_item_add_subtree(ptr noundef %29, i32 noundef %30)
  store ptr %31, ptr %16, align 8
  %32 = load ptr, ptr %8, align 8
  %33 = load i32, ptr %11, align 4
  %34 = call zeroext i8 @tvb_get_uint8(ptr noundef %32, i32 noundef %33)
  store i8 %34, ptr %18, align 1
  %35 = load i8, ptr %18, align 1
  %36 = zext i8 %35 to i32
  %37 = call ptr @try_val_to_str(i32 noundef %36, ptr noundef @tls_heartbeat_type)
  store ptr %37, ptr %17, align 8
  %38 = load ptr, ptr %8, align 8
  %39 = load i32, ptr %11, align 4
  %40 = add i32 %39, 1
  %41 = call zeroext i16 @tvb_get_ntohs(ptr noundef %38, i32 noundef %40)
  store i16 %41, ptr %19, align 2
  %42 = load i32, ptr %13, align 4
  %43 = sub i32 %42, 3
  %44 = load i16, ptr %19, align 2
  %45 = zext i16 %44 to i32
  %46 = sub i32 %43, %45
  %47 = trunc i32 %46 to i16
  store i16 %47, ptr %20, align 2
  %48 = load ptr, ptr %17, align 8
  %49 = icmp ne ptr %48, null
  br i1 %49, label %50, label %62

50:                                               ; preds = %7
  %51 = load i16, ptr %19, align 2
  %52 = zext i16 %51 to i32
  %53 = load i32, ptr %13, align 4
  %54 = sub i32 %53, 16
  %55 = sub i32 %54, 3
  %56 = icmp ule i32 %52, %55
  br i1 %56, label %57, label %62

57:                                               ; preds = %50
  %58 = load ptr, ptr %9, align 8
  %59 = getelementptr inbounds nuw %struct._packet_info, ptr %58, i32 0, i32 1
  %60 = load ptr, ptr %59, align 8
  %61 = load ptr, ptr %17, align 8
  call void (ptr, i32, ptr, ptr, ...) @col_append_sep_fstr(ptr noundef %60, i32 noundef 25, ptr noundef null, ptr noundef @.str.992, ptr noundef %61)
  br label %66

62:                                               ; preds = %50, %7
  %63 = load ptr, ptr %9, align 8
  %64 = getelementptr inbounds nuw %struct._packet_info, ptr %63, i32 0, i32 1
  %65 = load ptr, ptr %64, align 8
  call void @col_append_sep_str(ptr noundef %65, i32 noundef 25, ptr noundef null, ptr noundef @.str.993)
  br label %66

66:                                               ; preds = %62, %57
  %67 = load ptr, ptr %10, align 8
  %68 = icmp ne ptr %67, null
  br i1 %68, label %69, label %165

69:                                               ; preds = %66
  %70 = load ptr, ptr %17, align 8
  %71 = icmp ne ptr %70, null
  br i1 %71, label %72, label %156

72:                                               ; preds = %69
  %73 = load i16, ptr %19, align 2
  %74 = zext i16 %73 to i32
  %75 = load i32, ptr %13, align 4
  %76 = sub i32 %75, 16
  %77 = sub i32 %76, 3
  %78 = icmp ule i32 %74, %77
  br i1 %78, label %82, label %79

79:                                               ; preds = %72
  %80 = load i8, ptr %14, align 1, !range !6, !noundef !7
  %81 = trunc i8 %80 to i1
  br i1 %81, label %82, label %156

82:                                               ; preds = %79, %72
  %83 = load ptr, ptr %10, align 8
  %84 = load ptr, ptr %12, align 8
  %85 = getelementptr inbounds nuw %struct._SslSession, ptr %84, i32 0, i32 2
  %86 = load i16, ptr %85, align 8
  %87 = zext i16 %86 to i32
  %88 = call ptr @val_to_str_const(i32 noundef %87, ptr noundef @ssl_version_short_names, ptr noundef @.str.858)
  %89 = load ptr, ptr %17, align 8
  call void (ptr, ptr, ...) @proto_item_set_text(ptr noundef %83, ptr noundef @.str.994, ptr noundef %88, ptr noundef %89)
  %90 = load ptr, ptr %16, align 8
  %91 = load i32, ptr @hf_dtls_heartbeat_message_type, align 4
  %92 = load ptr, ptr %8, align 8
  %93 = load i32, ptr %11, align 4
  %94 = call ptr @proto_tree_add_item(ptr noundef %90, i32 noundef %91, ptr noundef %92, i32 noundef %93, i32 noundef 1, i32 noundef 0)
  %95 = load i32, ptr %11, align 4
  %96 = add i32 %95, 1
  store i32 %96, ptr %11, align 4
  %97 = load ptr, ptr %16, align 8
  %98 = load i32, ptr @hf_dtls_heartbeat_message_payload_length, align 4
  %99 = load ptr, ptr %8, align 8
  %100 = load i32, ptr %11, align 4
  %101 = load i16, ptr %19, align 2
  %102 = zext i16 %101 to i32
  %103 = call ptr @proto_tree_add_uint(ptr noundef %97, i32 noundef %98, ptr noundef %99, i32 noundef %100, i32 noundef 2, i32 noundef %102)
  store ptr %103, ptr %15, align 8
  %104 = load i32, ptr %11, align 4
  %105 = add i32 %104, 2
  store i32 %105, ptr %11, align 4
  %106 = load i16, ptr %19, align 2
  %107 = zext i16 %106 to i32
  %108 = load i32, ptr %13, align 4
  %109 = sub i32 %108, 16
  %110 = sub i32 %109, 3
  %111 = icmp ugt i32 %107, %110
  br i1 %111, label %112, label %125

112:                                              ; preds = %82
  %113 = load ptr, ptr %9, align 8
  %114 = load ptr, ptr %15, align 8
  %115 = load i16, ptr %19, align 2
  %116 = zext i16 %115 to i32
  %117 = call ptr (ptr, ptr, ptr, ptr, ...) @expert_add_info_format(ptr noundef %113, ptr noundef %114, ptr noundef @ei_dtls_heartbeat_payload_length, ptr noundef @.str.995, i32 noundef %116)
  %118 = load i32, ptr %13, align 4
  %119 = sub i32 %118, 16
  %120 = sub i32 %119, 3
  %121 = trunc i32 %120 to i16
  store i16 %121, ptr %19, align 2
  store i16 16, ptr %20, align 2
  %122 = load ptr, ptr %15, align 8
  %123 = load i16, ptr %19, align 2
  %124 = zext i16 %123 to i32
  call void (ptr, ptr, ...) @proto_item_append_text(ptr noundef %122, ptr noundef @.str.996, i32 noundef %124)
  br label %125

125:                                              ; preds = %112, %82
  %126 = load ptr, ptr %16, align 8
  %127 = load i32, ptr @hf_dtls_heartbeat_message_payload, align 4
  %128 = load ptr, ptr %8, align 8
  %129 = load i32, ptr %11, align 4
  %130 = load i16, ptr %19, align 2
  %131 = zext i16 %130 to i32
  %132 = load i16, ptr %19, align 2
  %133 = zext i16 %132 to i32
  %134 = load i16, ptr %19, align 2
  %135 = zext i16 %134 to i32
  %136 = icmp eq i32 %135, 1
  %137 = select i1 %136, ptr @.str.922, ptr @.str.998
  %138 = call ptr (ptr, i32, ptr, i32, i32, ptr, ptr, ...) @proto_tree_add_bytes_format(ptr noundef %126, i32 noundef %127, ptr noundef %128, i32 noundef %129, i32 noundef %131, ptr noundef null, ptr noundef @.str.997, i32 noundef %133, ptr noundef %137)
  %139 = load i16, ptr %19, align 2
  %140 = zext i16 %139 to i32
  %141 = load i32, ptr %11, align 4
  %142 = add i32 %141, %140
  store i32 %142, ptr %11, align 4
  %143 = load ptr, ptr %16, align 8
  %144 = load i32, ptr @hf_dtls_heartbeat_message_padding, align 4
  %145 = load ptr, ptr %8, align 8
  %146 = load i32, ptr %11, align 4
  %147 = load i16, ptr %20, align 2
  %148 = zext i16 %147 to i32
  %149 = load i16, ptr %20, align 2
  %150 = zext i16 %149 to i32
  %151 = load i16, ptr %20, align 2
  %152 = zext i16 %151 to i32
  %153 = icmp eq i32 %152, 1
  %154 = select i1 %153, ptr @.str.922, ptr @.str.998
  %155 = call ptr (ptr, i32, ptr, i32, i32, ptr, ptr, ...) @proto_tree_add_bytes_format(ptr noundef %143, i32 noundef %144, ptr noundef %145, i32 noundef %146, i32 noundef %148, ptr noundef null, ptr noundef @.str.999, i32 noundef %150, ptr noundef %154)
  br label %164

156:                                              ; preds = %79, %69
  %157 = load ptr, ptr %10, align 8
  %158 = load ptr, ptr %12, align 8
  %159 = getelementptr inbounds nuw %struct._SslSession, ptr %158, i32 0, i32 2
  %160 = load i16, ptr %159, align 8
  %161 = zext i16 %160 to i32
  %162 = call ptr @val_to_str_const(i32 noundef %161, ptr noundef @ssl_version_short_names, ptr noundef @.str.858)
  call void (ptr, ptr, ...) @proto_item_set_text(ptr noundef %157, ptr noundef @.str.1000, ptr noundef %162)
  %163 = load ptr, ptr %16, align 8
  call void (ptr, ptr, ...) @proto_item_set_text(ptr noundef %163, ptr noundef @.str.1001)
  br label %164

164:                                              ; preds = %156, %125
  br label %165

165:                                              ; preds = %164, %66
  call void @llvm.lifetime.end.p0(i64 2, ptr %20) #12
  call void @llvm.lifetime.end.p0(i64 2, ptr %19) #12
  call void @llvm.lifetime.end.p0(i64 1, ptr %18) #12
  call void @llvm.lifetime.end.p0(i64 8, ptr %17) #12
  call void @llvm.lifetime.end.p0(i64 8, ptr %16) #12
  call void @llvm.lifetime.end.p0(i64 8, ptr %15) #12
  ret void
}