; Function Attrs: null_pointer_is_valid sspstrong uwtable
define internal fastcc void @dissect_dtls_heartbeat(ptr noundef %0, ptr noundef %1, ptr noundef %2, i32 noundef %3, ptr noundef readonly captures(none) %4, i32 noundef %5, i1 noundef zeroext %6) unnamed_addr #0 {
  %8 = load i32, ptr @hf_dtls_heartbeat_message, align 4
  %9 = add i32 %5, -32
  %10 = tail call ptr @proto_tree_add_item(ptr noundef %2, i32 noundef %8, ptr noundef %0, i32 noundef %3, i32 noundef %9, i32 noundef 0)
  %11 = load i32, ptr @ett_dtls_heartbeat, align 4
  %12 = tail call ptr @proto_item_add_subtree(ptr noundef %10, i32 noundef %11)
  %13 = tail call zeroext i8 @tvb_get_uint8(ptr noundef %0, i32 noundef %3)
  %14 = zext i8 %13 to i32
  %15 = tail call ptr @try_val_to_str(i32 noundef %14, ptr noundef nonnull @tls_heartbeat_type)
  %16 = add i32 %3, 1
  %17 = tail call zeroext i16 @tvb_get_ntohs(ptr noundef %0, i32 noundef %16)
  %18 = zext i16 %17 to i32
  %19 = trunc i32 %5 to i16
  %20 = add i16 %19, -3
  %21 = sub i16 %20, %17
  %.not = icmp eq ptr %15, null
  %22 = add i32 %5, -19
  %.not64 = icmp ult i32 %22, %18
  %or.cond = select i1 %.not, i1 true, i1 %.not64
  %23 = getelementptr inbounds nuw i8, ptr %1, i64 8
  %24 = load ptr, ptr %23, align 8
  br i1 %or.cond, label %26, label %25

25:                                               ; preds = %7
  tail call void (ptr, i32, ptr, ptr, ...) @col_append_sep_fstr(ptr noundef %24, i32 noundef 25, ptr noundef null, ptr noundef nonnull @.str.992, ptr noundef nonnull %15)
  br label %27

26:                                               ; preds = %7
  tail call void @col_append_sep_str(ptr noundef %24, i32 noundef 25, ptr noundef null, ptr noundef nonnull @.str.993)
  br label %27

27:                                               ; preds = %26, %25
  %.not65 = icmp eq ptr %2, null
  br i1 %.not65, label %53, label %28

28:                                               ; preds = %27
  %.not.not = xor i1 %.not, true
  %.not66.not = xor i1 %.not64, true
  %brmerge = or i1 %6, %.not66.not
  %or.cond67 = select i1 %.not.not, i1 %brmerge, i1 false
  %29 = getelementptr inbounds nuw i8, ptr %4, i64 8
  %30 = load i16, ptr %29, align 8
  %31 = zext i16 %30 to i32
  %32 = tail call ptr @val_to_str_const(i32 noundef %31, ptr noundef nonnull @ssl_version_short_names, ptr noundef nonnull @.str.858)
  br i1 %or.cond67, label %33, label %52

33:                                               ; preds = %28
  tail call void (ptr, ptr, ...) @proto_item_set_text(ptr noundef nonnull %2, ptr noundef nonnull @.str.994, ptr noundef %32, ptr noundef nonnull %15)
  %34 = load i32, ptr @hf_dtls_heartbeat_message_type, align 4
  %35 = tail call ptr @proto_tree_add_item(ptr noundef %12, i32 noundef %34, ptr noundef %0, i32 noundef %3, i32 noundef 1, i32 noundef 0)
  %36 = load i32, ptr @hf_dtls_heartbeat_message_payload_length, align 4
  %37 = tail call ptr @proto_tree_add_uint(ptr noundef %12, i32 noundef %36, ptr noundef %0, i32 noundef %16, i32 noundef 2, i32 noundef %18)
  %38 = add i32 %3, 3
  br i1 %.not64, label %39, label %42

39:                                               ; preds = %33
  %40 = tail call ptr (ptr, ptr, ptr, ptr, ...) @expert_add_info_format(ptr noundef %1, ptr noundef %37, ptr noundef nonnull @ei_dtls_heartbeat_payload_length, ptr noundef nonnull @.str.995, i32 noundef %18)
  %41 = trunc nuw i32 %22 to i16
  tail call void (ptr, ptr, ...) @proto_item_append_text(ptr noundef %37, ptr noundef nonnull @.str.996, i32 noundef %22)
  br label %42

42:                                               ; preds = %39, %33
  %.pre-phi = phi i32 [ %22, %39 ], [ %18, %33 ]
  %.059 = phi i16 [ %41, %39 ], [ %17, %33 ]
  %.0 = phi i16 [ 16, %39 ], [ %21, %33 ]
  %.0.fr = freeze i16 %.0
  %43 = load i32, ptr @hf_dtls_heartbeat_message_payload, align 4
  %44 = icmp eq i16 %.059, 1
  %45 = select i1 %44, ptr @.str.922, ptr @.str.998
  %46 = tail call ptr (ptr, i32, ptr, i32, i32, ptr, ptr, ...) @proto_tree_add_bytes_format(ptr noundef %12, i32 noundef %43, ptr noundef %0, i32 noundef %38, i32 noundef %.pre-phi, ptr noundef null, ptr noundef nonnull @.str.997, i32 noundef %.pre-phi, ptr noundef nonnull %45)
  %47 = add i32 %38, %.pre-phi
  %48 = load i32, ptr @hf_dtls_heartbeat_message_padding, align 4
  %49 = zext i16 %.0.fr to i32
  %50 = icmp eq i16 %.0.fr, 1
  %spec.select = select i1 %50, ptr @.str.922, ptr @.str.998
  %51 = tail call ptr (ptr, i32, ptr, i32, i32, ptr, ptr, ...) @proto_tree_add_bytes_format(ptr noundef %12, i32 noundef %48, ptr noundef %0, i32 noundef %47, i32 noundef %49, ptr noundef null, ptr noundef nonnull @.str.999, i32 noundef %49, ptr noundef nonnull %spec.select)
  br label %53

52:                                               ; preds = %28
  tail call void (ptr, ptr, ...) @proto_item_set_text(ptr noundef nonnull %2, ptr noundef nonnull @.str.1000, ptr noundef %32)
  tail call void (ptr, ptr, ...) @proto_item_set_text(ptr noundef %12, ptr noundef nonnull @.str.1001)
  br label %53

53:                                               ; preds = %42, %52, %27
  ret void
}